; Function Attrs: mustprogress uwtable
define void @_ZN3gmx25AnalysisDataModuleManager11applyModuleEPNS_20AbstractAnalysisDataEPNS_19IAnalysisDataModuleE(ptr noundef nonnull readonly align 8 captures(none) dereferenceable(8) %0, ptr noundef %1, ptr noundef %2) local_unnamed_addr #2 align 2 {
  %4 = load ptr, ptr %0, align 8, !tbaa !71
  %5 = getelementptr inbounds nuw i8, ptr %4, i64 24
  br label %6

6:                                                ; preds = %6, %3
  %indvars.iv.i = phi i64 [ 0, %3 ], [ %indvars.iv.next.i, %6 ]
  %7 = getelementptr inbounds nuw [3 x i8], ptr %5, i64 0, i64 %indvars.iv.i
  %8 = load i8, ptr %7, align 1, !tbaa !59, !range !60, !noundef !61
  %9 = trunc nuw i8 %8 to i1
  %10 = trunc nuw nsw i64 %indvars.iv.i to i32
  tail call void @_ZN3gmx25AnalysisDataModuleManager4Impl19checkModulePropertyERKNS_19IAnalysisDataModuleENS0_12DataPropertyEb(ptr noundef nonnull align 8 dereferenceable(8) %2, i32 noundef %10, i1 noundef zeroext %9)
  %indvars.iv.next.i = add nuw nsw i64 %indvars.iv.i, 1
  %exitcond.not.i = icmp eq i64 %indvars.iv.next.i, 3
  br i1 %exitcond.not.i, label %_ZNK3gmx25AnalysisDataModuleManager4Impl21checkModulePropertiesERKNS_19IAnalysisDataModuleE.exit, label %6, !llvm.loop !62

_ZNK3gmx25AnalysisDataModuleManager4Impl21checkModulePropertiesERKNS_19IAnalysisDataModuleE.exit: ; preds = %6
  %11 = load ptr, ptr %0, align 8, !tbaa !71
  %12 = getelementptr inbounds nuw i8, ptr %11, i64 32
  %13 = load i32, ptr %12, align 8, !tbaa !19
  %14 = icmp eq i32 %13, 3
  br i1 %14, label %16, label %15

15:                                               ; preds = %_ZNK3gmx25AnalysisDataModuleManager4Impl21checkModulePropertiesERKNS_19IAnalysisDataModuleE.exit
  tail call void @_ZN3gmx8internal13assertHandlerEPKcS2_S2_S2_i(ptr noundef nonnull @.str.15, ptr noundef nonnull @.str.16, ptr noundef nonnull @"__PRETTY_FUNCTION__._ZZN3gmx25AnalysisDataModuleManager11applyModuleEPNS_20AbstractAnalysisDataEPNS_19IAnalysisDataModuleEENK3$_0clEv", ptr noundef nonnull @.str.1, i32 noundef 293) #20
  unreachable

16:                                               ; preds = %_ZNK3gmx25AnalysisDataModuleManager4Impl21checkModulePropertiesERKNS_19IAnalysisDataModuleE.exit
  tail call void @_ZNK3gmx25AnalysisDataModuleManager4Impl11presentDataEPNS_20AbstractAnalysisDataEPNS_19IAnalysisDataModuleE(ptr noundef nonnull align 8 dereferenceable(40) %11, ptr noundef %1, ptr noundef nonnull %2)
  ret void
}